target datalayout = "e-m:e-p270:32:32-p271:32:32-p272:64:64-i64:64-i128:128-f80:128-n8:16:32:64-S128"
target triple = "x86_64-pc-linux-gnu"

%struct.Vector3 = type { float, float, float }
%struct.Color = type { i8, i8, i8, i8 }

; Function Attrs: nounwind uwtable
define void @DrawPoint3D(<2 x float> %0, float %1, i32 %2) #10 {
  %4 = alloca %struct.Vector3, align 4
  %5 = alloca { <2 x float>, float }, align 4
  %6 = alloca %struct.Color, align 1
  %7 = getelementptr inbounds nuw { <2 x float>, float }, ptr %5, i32 0, i32 0
  store <2 x float> %0, ptr %7, align 4
  %8 = getelementptr inbounds nuw { <2 x float>, float }, ptr %5, i32 0, i32 1
  store float %1, ptr %8, align 4
  call void @llvm.memcpy.p0.p0.i64(ptr align 4 %4, ptr align 4 %5, i64 12, i1 false)
  store i32 %2, ptr %6, align 1
  call void @rlPushMatrix()
  %9 = getelementptr inbounds nuw %struct.Vector3, ptr %4, i32 0, i32 0
  %10 = load float, ptr %9, align 4
  %11 = getelementptr inbounds nuw %struct.Vector3, ptr %4, i32 0, i32 1
  %12 = load float, ptr %11, align 4
  %13 = getelementptr inbounds nuw %struct.Vector3, ptr %4, i32 0, i32 2
  %14 = load float, ptr %13, align 4
  call void @rlTranslatef(float noundef %10, float noundef %12, float noundef %14)
  call void @rlBegin(i32 noundef 1)
  %15 = getelementptr inbounds nuw %struct.Color, ptr %6, i32 0, i32 0
  %16 = load i8, ptr %15, align 1
  %17 = getelementptr inbounds nuw %struct.Color, ptr %6, i32 0, i32 1
  %18 = load i8, ptr %17, align 1
  %19 = getelementptr inbounds nuw %struct.Color, ptr %6, i32 0, i32 2
  %20 = load i8, ptr %19, align 1
  %21 = getelementptr inbounds nuw %struct.Color, ptr %6, i32 0, i32 3
  %22 = load i8, ptr %21, align 1
  call void @rlColor4ub(i8 noundef zeroext %16, i8 noundef zeroext %18, i8 noundef zeroext %20, i8 noundef zeroext %22)
  call void @rlVertex3f(float noundef 0.000000e+00, float noundef 0.000000e+00, float noundef 0.000000e+00)
  call void @rlVertex3f(float noundef 0.000000e+00, float noundef 0.000000e+00, float noundef 0x3FB99999A0000000)
  call void @rlEnd()
  call void @rlPopMatrix()
  ret void
}