; Function Attrs: nounwind uwtable
define void @DrawPoint3D(<2 x float> %0, float %1, i32 %2) local_unnamed_addr #25 {
  %.sroa.0.0.extract.trunc = trunc i32 %2 to i8
  %.sroa.2.0.extract.shift = lshr i32 %2, 8
  %.sroa.2.0.extract.trunc = trunc i32 %.sroa.2.0.extract.shift to i8
  %.sroa.3.0.extract.shift = lshr i32 %2, 16
  %.sroa.3.0.extract.trunc = trunc i32 %.sroa.3.0.extract.shift to i8
  %.sroa.4.0.extract.shift = lshr i32 %2, 24
  %.sroa.4.0.extract.trunc = trunc nuw i32 %.sroa.4.0.extract.shift to i8
  tail call void @rlPushMatrix() #57
  %.sroa.03.0.vec.extract = extractelement <2 x float> %0, i64 0
  %.sroa.03.4.vec.extract = extractelement <2 x float> %0, i64 1
  tail call void @rlTranslatef(float noundef %.sroa.03.0.vec.extract, float noundef %.sroa.03.4.vec.extract, float noundef %1) #57
  tail call void @rlBegin(i32 noundef 1) #57
  tail call void @rlColor4ub(i8 noundef zeroext %.sroa.0.0.extract.trunc, i8 noundef zeroext %.sroa.2.0.extract.trunc, i8 noundef zeroext %.sroa.3.0.extract.trunc, i8 noundef zeroext %.sroa.4.0.extract.trunc) #57
  tail call void @rlVertex3f(float noundef 0.000000e+00, float noundef 0.000000e+00, float noundef 0.000000e+00) #57
  tail call void @rlVertex3f(float noundef 0.000000e+00, float noundef 0.000000e+00, float noundef 0x3FB99999A0000000) #57
  tail call void @rlEnd() #57
  tail call void @rlPopMatrix() #57
  ret void
}